; ModuleID = '54/1008.c'
source_filename = "54/1008.c"
target datalayout = "e-m:e-p270:32:32-p271:32:32-p272:64:64-i64:64-f80:128-n8:16:32:64-S128"
target triple = "x86_64-pc-linux-gnu"

@.str = private unnamed_addr constant [6 x i8] c"%d %d\00", align 1
@.str.1 = private unnamed_addr constant [3 x i8] c"%d\00", align 1

; Function Attrs: noinline nounwind uwtable
define dso_local i32 @main() #0 {
  %1 = alloca i32, align 4
  %2 = alloca i32, align 4
  %3 = alloca i32, align 4
  %4 = alloca i32, align 4
  store i32 0, i32* %1, align 4
  %5 = call i32 (i8*, ...) @__isoc99_scanf(i8* getelementptr inbounds ([6 x i8], [6 x i8]* @.str, i64 0, i64 0), i32* %2, i32* %3)
  %6 = load i32, i32* %2, align 4
  %7 = load i32, i32* %3, align 4
  %8 = call i32 @apple(i32 %6, i32 %7)
  store i32 %8, i32* %4, align 4
  %9 = load i32, i32* %4, align 4
  %10 = call i32 (i8*, ...) @printf(i8* getelementptr inbounds ([3 x i8], [3 x i8]* @.str.1, i64 0, i64 0), i32 %9)
  ret i32 0
}

declare dso_local i32 @__isoc99_scanf(i8*, ...) #1

; Function Attrs: noinline nounwind uwtable
define dso_local i32 @apple(i32 %0, i32 %1) #0 {
  %3 = alloca i32, align 4
  %4 = alloca i32, align 4
  %5 = alloca i32, align 4
  %6 = alloca i32, align 4
  %7 = alloca i32, align 4
  %8 = alloca i32, align 4
  %9 = alloca i32, align 4
  store i32 %0, i32* %4, align 4
  store i32 %1, i32* %5, align 4
  store i32 1, i32* %9, align 4
  br label %10

10:                                               ; preds = %51, %2
  %11 = load i32, i32* %4, align 4
  %12 = load i32, i32* %9, align 4
  %13 = mul nsw i32 %11, %12
  %14 = load i32, i32* %5, align 4
  %15 = add nsw i32 %13, %14
  store i32 %15, i32* %7, align 4
  store i32 2, i32* %8, align 4
  br label %16

16:                                               ; preds = %43, %10
  %17 = load i32, i32* %8, align 4
  %18 = load i32, i32* %4, align 4
  %19 = add nsw i32 %18, 1
  %20 = icmp slt i32 %17, %19
  br i1 %20, label %21, label %46

21:                                               ; preds = %16
  %22 = load i32, i32* %7, align 4
  %23 = load i32, i32* %4, align 4
  %24 = sub nsw i32 %23, 1
  %25 = srem i32 %22, %24
  %26 = icmp ne i32 %25, 0
  br i1 %26, label %27, label %28

27:                                               ; preds = %21
  br label %46

28:                                               ; preds = %21
  %29 = load i32, i32* %7, align 4
  %30 = load i32, i32* %4, align 4
  %31 = mul nsw i32 %29, %30
  %32 = load i32, i32* %4, align 4
  %33 = sub nsw i32 %32, 1
  %34 = sdiv i32 %31, %33
  %35 = load i32, i32* %5, align 4
  %36 = add nsw i32 %34, %35
  store i32 %36, i32* %7, align 4
  %37 = load i32, i32* %8, align 4
  %38 = load i32, i32* %4, align 4
  %39 = icmp eq i32 %37, %38
  br i1 %39, label %40, label %42

40:                                               ; preds = %28
  store i32 1, i32* %6, align 4
  %41 = load i32, i32* %7, align 4
  store i32 %41, i32* %3, align 4
  br label %54

42:                                               ; preds = %28
  br label %43

43:                                               ; preds = %42
  %44 = load i32, i32* %8, align 4
  %45 = add nsw i32 %44, 1
  store i32 %45, i32* %8, align 4
  br label %16

46:                                               ; preds = %27, %16
  %47 = load i32, i32* %6, align 4
  %48 = icmp eq i32 %47, 1
  br i1 %48, label %49, label %50

49:                                               ; preds = %46
  br label %54

50:                                               ; preds = %46
  br label %51

51:                                               ; preds = %50
  %52 = load i32, i32* %9, align 4
  %53 = add nsw i32 %52, 1
  store i32 %53, i32* %9, align 4
  br label %10

54:                                               ; preds = %40, %49
  %55 = load i32, i32* %3, align 4
  ret i32 %55
}

declare dso_local i32 @printf(i8*, ...) #1


!llvm.module.flags = !{!0}
!llvm.ident = !{!1}

!0 = !{i32 1, !"wchar_size", i32 4}
!1 = !{!"clang version 10.0.0-4ubuntu1 "}
