; ModuleID = 'source-C-CXX/53/1008.c'
source_filename = "source-C-CXX/53/1008.c"
target datalayout = "e-m:e-p270:32:32-p271:32:32-p272:64:64-i64:64-f80:128-n8:16:32:64-S128"
target triple = "x86_64-pc-linux-gnu"

@.str = private unnamed_addr constant [6 x i8] c"%d %d\00", align 1
@.str.1 = private unnamed_addr constant [3 x i8] c"%d\00", align 1

; Function Attrs: nofree nounwind sspstrong uwtable
define dso_local i32 @main() local_unnamed_addr #0 {
  %1 = alloca i32, align 4
  %2 = alloca i32, align 4
  %3 = bitcast i32* %1 to i8*
  call void @llvm.lifetime.start.p0i8(i64 4, i8* nonnull %3) #4
  %4 = bitcast i32* %2 to i8*
  call void @llvm.lifetime.start.p0i8(i64 4, i8* nonnull %4) #4
  %5 = call i32 (i8*, ...) @__isoc99_scanf(i8* getelementptr inbounds ([6 x i8], [6 x i8]* @.str, i64 0, i64 0), i32* nonnull %1, i32* nonnull %2)
  %6 = load i32, i32* %1, align 4, !tbaa !5
  %7 = load i32, i32* %2, align 4, !tbaa !5
  %8 = add nsw i32 %6, -1
  %9 = icmp slt i32 %6, 2
  br i1 %9, label %25, label %10

10:                                               ; preds = %0
  %11 = add nsw i32 %7, %6
  %12 = srem i32 %11, %8
  %13 = icmp eq i32 %12, 0
  br i1 %13, label %18, label %25

14:                                               ; preds = %18
  %15 = add nuw nsw i32 %20, 1
  %16 = srem i32 %23, %8
  %17 = icmp eq i32 %16, 0
  br i1 %17, label %18, label %25, !llvm.loop !9

18:                                               ; preds = %10, %14
  %19 = phi i32 [ %23, %14 ], [ %11, %10 ]
  %20 = phi i32 [ %15, %14 ], [ 2, %10 ]
  %21 = mul nsw i32 %19, %6
  %22 = sdiv i32 %21, %8
  %23 = add nsw i32 %22, %7
  %24 = icmp eq i32 %20, %6
  br i1 %24, label %25, label %14

25:                                               ; preds = %18, %14, %10, %0
  %26 = phi i32 [ undef, %0 ], [ undef, %10 ], [ %23, %14 ], [ %23, %18 ]
  %27 = call i32 (i8*, ...) @printf(i8* nonnull dereferenceable(1) getelementptr inbounds ([3 x i8], [3 x i8]* @.str.1, i64 0, i64 0), i32 %26)
  call void @llvm.lifetime.end.p0i8(i64 4, i8* nonnull %4) #4
  call void @llvm.lifetime.end.p0i8(i64 4, i8* nonnull %3) #4
  ret i32 0
}

; Function Attrs: argmemonly mustprogress nofree nosync nounwind willreturn
declare void @llvm.lifetime.start.p0i8(i64 immarg, i8* nocapture) #1

; Function Attrs: nofree nounwind
declare noundef i32 @__isoc99_scanf(i8* nocapture noundef readonly, ...) local_unnamed_addr #2

; Function Attrs: nofree norecurse nosync nounwind readnone sspstrong uwtable
define dso_local i32 @apple(i32 %0, i32 %1) local_unnamed_addr #3 {
  %3 = add nsw i32 %0, -1
  %4 = icmp slt i32 %0, 2
  br i1 %4, label %20, label %5

5:                                                ; preds = %2
  %6 = add nsw i32 %1, %0
  %7 = srem i32 %6, %3
  %8 = icmp eq i32 %7, 0
  br i1 %8, label %13, label %20

9:                                                ; preds = %13
  %10 = add nuw nsw i32 %15, 1
  %11 = srem i32 %18, %3
  %12 = icmp eq i32 %11, 0
  br i1 %12, label %13, label %20, !llvm.loop !9

13:                                               ; preds = %5, %9
  %14 = phi i32 [ %18, %9 ], [ %6, %5 ]
  %15 = phi i32 [ %10, %9 ], [ 2, %5 ]
  %16 = mul nsw i32 %14, %0
  %17 = sdiv i32 %16, %3
  %18 = add nsw i32 %17, %1
  %19 = icmp eq i32 %15, %0
  br i1 %19, label %20, label %9

20:                                               ; preds = %9, %13, %5, %2
  %21 = phi i32 [ undef, %2 ], [ undef, %5 ], [ %18, %13 ], [ %18, %9 ]
  ret i32 %21
}

; Function Attrs: nofree nounwind
declare noundef i32 @printf(i8* nocapture noundef readonly, ...) local_unnamed_addr #2

; Function Attrs: argmemonly mustprogress nofree nosync nounwind willreturn
declare void @llvm.lifetime.end.p0i8(i64 immarg, i8* nocapture) #1


!llvm.module.flags = !{!0, !1, !2, !3}
!llvm.ident = !{!4}

!0 = !{i32 1, !"wchar_size", i32 4}
!1 = !{i32 7, !"PIC Level", i32 2}
!2 = !{i32 7, !"PIE Level", i32 2}
!3 = !{i32 7, !"uwtable", i32 1}
!4 = !{!"clang version 13.0.0"}
!5 = !{!6, !6, i64 0}
!6 = !{!"int", !7, i64 0}
!7 = !{!"omnipotent char", !8, i64 0}
!8 = !{!"Simple C/C++ TBAA"}
!9 = distinct !{!9, !10}
!10 = !{!"llvm.loop.mustprogress"}
